target datalayout = "e-m:e-p270:32:32-p271:32:32-p272:64:64-i64:64-i128:128-f80:128-n8:16:32:64-S128"
target triple = "x86_64-pc-linux-gnu"

%"class.pxrInternal_v0_24__pxrReserved__::GfRange2d" = type { %"class.pxrInternal_v0_24__pxrReserved__::GfVec2d", %"class.pxrInternal_v0_24__pxrReserved__::GfVec2d" }
%"class.pxrInternal_v0_24__pxrReserved__::GfVec2d" = type { [2 x double] }

; Function Attrs: mustprogress nounwind uwtable
define linkonce_odr noundef double @_ZN32pxrInternal_v0_24__pxrReserved__5GfSqrIdEEdRKT_(ptr noundef nonnull align 8 dereferenceable(8) %0) #2 comdat {
  %2 = alloca ptr, align 8
  store ptr %0, ptr %2, align 8
  %3 = load ptr, ptr %2, align 8
  %4 = load double, ptr %3, align 8
  %5 = load ptr, ptr %2, align 8
  %6 = load double, ptr %5, align 8
  %7 = fmul double %4, %6
  ret double %7
}

; Function Attrs: mustprogress nounwind uwtable
define linkonce_odr noundef nonnull align 8 dereferenceable(8) ptr @_ZNK32pxrInternal_v0_24__pxrReserved__7GfVec2dixEm(ptr noundef nonnull align 8 dereferenceable(16) %0, i64 noundef %1) #2 comdat align 2 {
  %3 = alloca ptr, align 8
  %4 = alloca i64, align 8
  store ptr %0, ptr %3, align 8
  store i64 %1, ptr %4, align 8
  %5 = load ptr, ptr %3, align 8
  %6 = getelementptr inbounds nuw %"class.pxrInternal_v0_24__pxrReserved__::GfVec2d", ptr %5, i32 0, i32 0
  %7 = load i64, ptr %4, align 8
  %8 = getelementptr inbounds [2 x double], ptr %6, i64 0, i64 %7
  ret ptr %8
}

; Function Attrs: mustprogress uwtable
define noundef double @_ZNK32pxrInternal_v0_24__pxrReserved__9GfRange2d18GetDistanceSquaredERKNS_7GfVec2dE(ptr noundef nonnull align 8 dereferenceable(32) %0, ptr noundef nonnull align 8 dereferenceable(16) %1) #0 align 2 {
  %3 = alloca ptr, align 8
  %4 = alloca ptr, align 8
  %5 = alloca double, align 8
  %6 = alloca double, align 8
  %7 = alloca double, align 8
  %8 = alloca double, align 8
  %9 = alloca double, align 8
  store ptr %0, ptr %3, align 8
  store ptr %1, ptr %4, align 8
  %10 = load ptr, ptr %3, align 8
  store double 0.000000e+00, ptr %5, align 8
  %11 = load ptr, ptr %4, align 8
  %12 = call noundef nonnull align 8 dereferenceable(8) ptr @_ZNK32pxrInternal_v0_24__pxrReserved__7GfVec2dixEm(ptr noundef nonnull align 8 dereferenceable(16) %11, i64 noundef 0)
  %13 = load double, ptr %12, align 8
  %14 = getelementptr inbounds nuw %"class.pxrInternal_v0_24__pxrReserved__::GfRange2d", ptr %10, i32 0, i32 0
  %15 = call noundef nonnull align 8 dereferenceable(8) ptr @_ZNK32pxrInternal_v0_24__pxrReserved__7GfVec2dixEm(ptr noundef nonnull align 8 dereferenceable(16) %14, i64 noundef 0)
  %16 = load double, ptr %15, align 8
  %17 = fcmp olt double %13, %16
  br i1 %17, label %18, label %29

18:                                               ; preds = %2
  %19 = getelementptr inbounds nuw %"class.pxrInternal_v0_24__pxrReserved__::GfRange2d", ptr %10, i32 0, i32 0
  %20 = call noundef nonnull align 8 dereferenceable(8) ptr @_ZNK32pxrInternal_v0_24__pxrReserved__7GfVec2dixEm(ptr noundef nonnull align 8 dereferenceable(16) %19, i64 noundef 0)
  %21 = load double, ptr %20, align 8
  %22 = load ptr, ptr %4, align 8
  %23 = call noundef nonnull align 8 dereferenceable(8) ptr @_ZNK32pxrInternal_v0_24__pxrReserved__7GfVec2dixEm(ptr noundef nonnull align 8 dereferenceable(16) %22, i64 noundef 0)
  %24 = load double, ptr %23, align 8
  %25 = fsub double %21, %24
  store double %25, ptr %6, align 8
  %26 = call noundef double @_ZN32pxrInternal_v0_24__pxrReserved__5GfSqrIdEEdRKT_(ptr noundef nonnull align 8 dereferenceable(8) %6)
  %27 = load double, ptr %5, align 8
  %28 = fadd double %27, %26
  store double %28, ptr %5, align 8
  br label %49

29:                                               ; preds = %2
  %30 = load ptr, ptr %4, align 8
  %31 = call noundef nonnull align 8 dereferenceable(8) ptr @_ZNK32pxrInternal_v0_24__pxrReserved__7GfVec2dixEm(ptr noundef nonnull align 8 dereferenceable(16) %30, i64 noundef 0)
  %32 = load double, ptr %31, align 8
  %33 = getelementptr inbounds nuw %"class.pxrInternal_v0_24__pxrReserved__::GfRange2d", ptr %10, i32 0, i32 1
  %34 = call noundef nonnull align 8 dereferenceable(8) ptr @_ZNK32pxrInternal_v0_24__pxrReserved__7GfVec2dixEm(ptr noundef nonnull align 8 dereferenceable(16) %33, i64 noundef 0)
  %35 = load double, ptr %34, align 8
  %36 = fcmp ogt double %32, %35
  br i1 %36, label %37, label %48

37:                                               ; preds = %29
  %38 = load ptr, ptr %4, align 8
  %39 = call noundef nonnull align 8 dereferenceable(8) ptr @_ZNK32pxrInternal_v0_24__pxrReserved__7GfVec2dixEm(ptr noundef nonnull align 8 dereferenceable(16) %38, i64 noundef 0)
  %40 = load double, ptr %39, align 8
  %41 = getelementptr inbounds nuw %"class.pxrInternal_v0_24__pxrReserved__::GfRange2d", ptr %10, i32 0, i32 1
  %42 = call noundef nonnull align 8 dereferenceable(8) ptr @_ZNK32pxrInternal_v0_24__pxrReserved__7GfVec2dixEm(ptr noundef nonnull align 8 dereferenceable(16) %41, i64 noundef 0)
  %43 = load double, ptr %42, align 8
  %44 = fsub double %40, %43
  store double %44, ptr %7, align 8
  %45 = call noundef double @_ZN32pxrInternal_v0_24__pxrReserved__5GfSqrIdEEdRKT_(ptr noundef nonnull align 8 dereferenceable(8) %7)
  %46 = load double, ptr %5, align 8
  %47 = fadd double %46, %45
  store double %47, ptr %5, align 8
  br label %48

48:                                               ; preds = %37, %29
  br label %49

49:                                               ; preds = %48, %18
  %50 = load ptr, ptr %4, align 8
  %51 = call noundef nonnull align 8 dereferenceable(8) ptr @_ZNK32pxrInternal_v0_24__pxrReserved__7GfVec2dixEm(ptr noundef nonnull align 8 dereferenceable(16) %50, i64 noundef 1)
  %52 = load double, ptr %51, align 8
  %53 = getelementptr inbounds nuw %"class.pxrInternal_v0_24__pxrReserved__::GfRange2d", ptr %10, i32 0, i32 0
  %54 = call noundef nonnull align 8 dereferenceable(8) ptr @_ZNK32pxrInternal_v0_24__pxrReserved__7GfVec2dixEm(ptr noundef nonnull align 8 dereferenceable(16) %53, i64 noundef 1)
  %55 = load double, ptr %54, align 8
  %56 = fcmp olt double %52, %55
  br i1 %56, label %57, label %68

57:                                               ; preds = %49
  %58 = getelementptr inbounds nuw %"class.pxrInternal_v0_24__pxrReserved__::GfRange2d", ptr %10, i32 0, i32 0
  %59 = call noundef nonnull align 8 dereferenceable(8) ptr @_ZNK32pxrInternal_v0_24__pxrReserved__7GfVec2dixEm(ptr noundef nonnull align 8 dereferenceable(16) %58, i64 noundef 1)
  %60 = load double, ptr %59, align 8
  %61 = load ptr, ptr %4, align 8
  %62 = call noundef nonnull align 8 dereferenceable(8) ptr @_ZNK32pxrInternal_v0_24__pxrReserved__7GfVec2dixEm(ptr noundef nonnull align 8 dereferenceable(16) %61, i64 noundef 1)
  %63 = load double, ptr %62, align 8
  %64 = fsub double %60, %63
  store double %64, ptr %8, align 8
  %65 = call noundef double @_ZN32pxrInternal_v0_24__pxrReserved__5GfSqrIdEEdRKT_(ptr noundef nonnull align 8 dereferenceable(8) %8)
  %66 = load double, ptr %5, align 8
  %67 = fadd double %66, %65
  store double %67, ptr %5, align 8
  br label %88

68:                                               ; preds = %49
  %69 = load ptr, ptr %4, align 8
  %70 = call noundef nonnull align 8 dereferenceable(8) ptr @_ZNK32pxrInternal_v0_24__pxrReserved__7GfVec2dixEm(ptr noundef nonnull align 8 dereferenceable(16) %69, i64 noundef 1)
  %71 = load double, ptr %70, align 8
  %72 = getelementptr inbounds nuw %"class.pxrInternal_v0_24__pxrReserved__::GfRange2d", ptr %10, i32 0, i32 1
  %73 = call noundef nonnull align 8 dereferenceable(8) ptr @_ZNK32pxrInternal_v0_24__pxrReserved__7GfVec2dixEm(ptr noundef nonnull align 8 dereferenceable(16) %72, i64 noundef 1)
  %74 = load double, ptr %73, align 8
  %75 = fcmp ogt double %71, %74
  br i1 %75, label %76, label %87

76:                                               ; preds = %68
  %77 = load ptr, ptr %4, align 8
  %78 = call noundef nonnull align 8 dereferenceable(8) ptr @_ZNK32pxrInternal_v0_24__pxrReserved__7GfVec2dixEm(ptr noundef nonnull align 8 dereferenceable(16) %77, i64 noundef 1)
  %79 = load double, ptr %78, align 8
  %80 = getelementptr inbounds nuw %"class.pxrInternal_v0_24__pxrReserved__::GfRange2d", ptr %10, i32 0, i32 1
  %81 = call noundef nonnull align 8 dereferenceable(8) ptr @_ZNK32pxrInternal_v0_24__pxrReserved__7GfVec2dixEm(ptr noundef nonnull align 8 dereferenceable(16) %80, i64 noundef 1)
  %82 = load double, ptr %81, align 8
  %83 = fsub double %79, %82
  store double %83, ptr %9, align 8
  %84 = call noundef double @_ZN32pxrInternal_v0_24__pxrReserved__5GfSqrIdEEdRKT_(ptr noundef nonnull align 8 dereferenceable(8) %9)
  %85 = load double, ptr %5, align 8
  %86 = fadd double %85, %84
  store double %86, ptr %5, align 8
  br label %87

87:                                               ; preds = %76, %68
  br label %88

88:                                               ; preds = %87, %57
  %89 = load double, ptr %5, align 8
  ret double %89
}