; Function Attrs: mustprogress nofree norecurse nosync nounwind willreturn memory(argmem: read) uwtable
define noundef double @_ZNK32pxrInternal_v0_24__pxrReserved__9GfRange2d18GetDistanceSquaredERKNS_7GfVec2dE(ptr nocapture noundef nonnull readonly align 8 dereferenceable(32) %0, ptr nocapture noundef nonnull readonly align 8 dereferenceable(16) %1) local_unnamed_addr #3 align 2 {
  %3 = load double, ptr %1, align 8
  %4 = load double, ptr %0, align 8
  %5 = fcmp olt double %3, %4
  br i1 %5, label %6, label %9

6:                                                ; preds = %2
  %7 = fsub double %4, %3
  %8 = fmul double %7, %7
  br label %16

9:                                                ; preds = %2
  %10 = getelementptr inbounds nuw i8, ptr %0, i64 16
  %11 = load double, ptr %10, align 8
  %12 = fcmp ogt double %3, %11
  br i1 %12, label %13, label %16

13:                                               ; preds = %9
  %14 = fsub double %3, %11
  %15 = fmul double %14, %14
  br label %16

16:                                               ; preds = %9, %13, %6
  %.0 = phi double [ %8, %6 ], [ %15, %13 ], [ 0.000000e+00, %9 ]
  %17 = getelementptr inbounds i8, ptr %1, i64 8
  %18 = load double, ptr %17, align 8
  %19 = getelementptr inbounds i8, ptr %0, i64 8
  %20 = load double, ptr %19, align 8
  %21 = fcmp olt double %18, %20
  br i1 %21, label %22, label %26

22:                                               ; preds = %16
  %23 = fsub double %20, %18
  %24 = fmul double %23, %23
  %25 = fadd double %.0, %24
  br label %34

26:                                               ; preds = %16
  %27 = getelementptr inbounds i8, ptr %0, i64 24
  %28 = load double, ptr %27, align 8
  %29 = fcmp ogt double %18, %28
  br i1 %29, label %30, label %34

30:                                               ; preds = %26
  %31 = fsub double %18, %28
  %32 = fmul double %31, %31
  %33 = fadd double %.0, %32
  br label %34

34:                                               ; preds = %26, %30, %22
  %.1 = phi double [ %25, %22 ], [ %33, %30 ], [ %.0, %26 ]
  ret double %.1
}